target datalayout = "e-m:e-p270:32:32-p271:32:32-p272:64:64-i64:64-i128:128-f80:128-n8:16:32:64-S128"
target triple = "x86_64-pc-linux-gnu"

%struct._packet_info = type { ptr, ptr, i32, i32, %struct.nstime_t, %struct.nstime_t, %struct.nstime_t, i8, ptr, ptr, ptr, ptr, %struct._address, %struct._address, %struct._address, %struct._address, %struct._address, %struct._address, i32, ptr, i8, [3 x i8], %struct.anon, i32, i32, i32, i32, ptr, i8, ptr, ptr, i16, i16, i32, i32, i16, i32, i32, ptr, ptr, ptr, i8, i8, i16, i16, i16, i32, i16, i16, ptr, ptr, ptr, ptr, ptr, i32, i32 }
%struct.nstime_t = type { i64, i32 }
%struct._address = type { i32, i32, ptr, ptr }
%struct.anon = type { i8, [3 x i8] }

@hf_x11_reply = internal global i32 0, align 4
@hf_x11_reply_sequencenumber = internal global i32 0, align 4
@hf_x11_replylength = internal global i32 0, align 4
@hf_x11_unused = internal global i32 0, align 4
@hf_x11_struct_xinput_XIDeviceInfo = internal global i32 0, align 4
@hf_x11_struct_xinput_XIDeviceInfo_deviceid = internal global i32 0, align 4
@hf_x11_struct_xinput_XIDeviceInfo_type = internal global i32 0, align 4
@hf_x11_struct_xinput_XIDeviceInfo_attachment = internal global i32 0, align 4
@hf_x11_struct_xinput_XIDeviceInfo_num_classes = internal global i32 0, align 4
@hf_x11_struct_xinput_XIDeviceInfo_name_len = internal global i32 0, align 4
@hf_x11_struct_xinput_XIDeviceInfo_enabled = internal global i32 0, align 4
@hf_x11_struct_xinput_XIDeviceInfo_name = internal global i32 0, align 4
@hf_x11_xinput_XIQueryDevice_reply_num_infos = internal global i32 0, align 4
@ett_x11_rectangle = internal global i32 0, align 4
@.str.15487 = private unnamed_addr constant [15 x i8] c"-XIQueryDevice\00", align 1
@.str.15488 = private unnamed_addr constant [26 x i8] c"%d (xinput-XIQueryDevice)\00", align 1

; Function Attrs: nounwind null_pointer_is_valid sspstrong uwtable
define internal i32 @struct_size_xinput_DeviceClass(ptr noundef %0, ptr noundef %1, i32 noundef %2) #8 {
  %4 = alloca ptr, align 8
  %5 = alloca ptr, align 8
  %6 = alloca i32, align 4
  %7 = alloca i32, align 4
  store ptr %0, ptr %4, align 8
  store ptr %1, ptr %5, align 8
  store i32 %2, ptr %6, align 4
  call void @llvm.lifetime.start.p0(i64 4, ptr %7) #11
  store i32 0, ptr %7, align 4
  %8 = load i32, ptr %7, align 4
  %9 = add i32 %8, 6
  call void @llvm.lifetime.end.p0(i64 4, ptr %7) #11
  ret i32 %9
}

; Function Attrs: null_pointer_is_valid sspstrong uwtable
define internal void @listOfByte(ptr noundef %0, ptr noundef %1, ptr noundef %2, i32 noundef %3, i32 noundef %4, i32 noundef %5) #1 {
  %7 = alloca ptr, align 8
  %8 = alloca ptr, align 8
  %9 = alloca ptr, align 8
  %10 = alloca i32, align 4
  %11 = alloca i32, align 4
  %12 = alloca i32, align 4
  store ptr %0, ptr %7, align 8
  store ptr %1, ptr %8, align 8
  store ptr %2, ptr %9, align 8
  store i32 %3, ptr %10, align 4
  store i32 %4, ptr %11, align 4
  store i32 %5, ptr %12, align 4
  %13 = load i32, ptr %11, align 4
  %14 = icmp sle i32 %13, 0
  br i1 %14, label %15, label %16

15:                                               ; preds = %6
  store i32 1, ptr %11, align 4
  br label %16

16:                                               ; preds = %15, %6
  %17 = load ptr, ptr %9, align 8
  %18 = load i32, ptr %10, align 4
  %19 = load ptr, ptr %7, align 8
  %20 = load ptr, ptr %8, align 8
  %21 = load i32, ptr %20, align 4
  %22 = load i32, ptr %11, align 4
  %23 = load i32, ptr %12, align 4
  %24 = call ptr @proto_tree_add_item(ptr noundef %17, i32 noundef %18, ptr noundef %19, i32 noundef %21, i32 noundef %22, i32 noundef %23)
  %25 = load i32, ptr %11, align 4
  %26 = load ptr, ptr %8, align 8
  %27 = load i32, ptr %26, align 4
  %28 = add i32 %27, %25
  store i32 %28, ptr %26, align 4
  ret void
}

; Function Attrs: null_pointer_is_valid sspstrong uwtable
define internal i32 @struct_size_xinput_XIDeviceInfo(ptr noundef %0, ptr noundef %1, i32 noundef %2) #1 {
  %4 = alloca ptr, align 8
  %5 = alloca ptr, align 8
  %6 = alloca i32, align 4
  %7 = alloca i32, align 4
  %8 = alloca i32, align 4
  %9 = alloca i32, align 4
  %10 = alloca i32, align 4
  %11 = alloca i32, align 4
  store ptr %0, ptr %4, align 8
  store ptr %1, ptr %5, align 8
  store i32 %2, ptr %6, align 4
  call void @llvm.lifetime.start.p0(i64 4, ptr %7) #11
  store i32 0, ptr %7, align 4
  call void @llvm.lifetime.start.p0(i64 4, ptr %8) #11
  call void @llvm.lifetime.start.p0(i64 4, ptr %9) #11
  call void @llvm.lifetime.start.p0(i64 4, ptr %10) #11
  call void @llvm.lifetime.start.p0(i64 4, ptr %11) #11
  %12 = load ptr, ptr %4, align 8
  %13 = load ptr, ptr %5, align 8
  %14 = load i32, ptr %13, align 4
  %15 = load i32, ptr %7, align 4
  %16 = add i32 %14, %15
  %17 = add i32 %16, 6
  %18 = load i32, ptr %6, align 4
  %19 = call zeroext i16 @tvb_get_uint16(ptr noundef %12, i32 noundef %17, i32 noundef %18)
  %20 = zext i16 %19 to i32
  store i32 %20, ptr %11, align 4
  %21 = load ptr, ptr %4, align 8
  %22 = load ptr, ptr %5, align 8
  %23 = load i32, ptr %22, align 4
  %24 = load i32, ptr %7, align 4
  %25 = add i32 %23, %24
  %26 = add i32 %25, 8
  %27 = load i32, ptr %6, align 4
  %28 = call zeroext i16 @tvb_get_uint16(ptr noundef %21, i32 noundef %26, i32 noundef %27)
  %29 = zext i16 %28 to i32
  store i32 %29, ptr %10, align 4
  %30 = load i32, ptr %10, align 4
  %31 = mul i32 %30, 1
  %32 = load i32, ptr %7, align 4
  %33 = add i32 %32, %31
  store i32 %33, ptr %7, align 4
  %34 = load i32, ptr %7, align 4
  %35 = add i32 %34, 3
  %36 = and i32 %35, -4
  store i32 %36, ptr %7, align 4
  store i32 0, ptr %8, align 4
  br label %37

37:                                               ; preds = %52, %3
  %38 = load i32, ptr %8, align 4
  %39 = load i32, ptr %11, align 4
  %40 = icmp slt i32 %38, %39
  br i1 %40, label %41, label %55

41:                                               ; preds = %37
  %42 = load ptr, ptr %5, align 8
  %43 = load i32, ptr %42, align 4
  %44 = load i32, ptr %7, align 4
  %45 = add i32 %43, %44
  %46 = add i32 %45, 12
  store i32 %46, ptr %9, align 4
  %47 = load ptr, ptr %4, align 8
  %48 = load i32, ptr %6, align 4
  %49 = call i32 @struct_size_xinput_DeviceClass(ptr noundef %47, ptr noundef %9, i32 noundef %48)
  %50 = load i32, ptr %7, align 4
  %51 = add i32 %50, %49
  store i32 %51, ptr %7, align 4
  br label %52

52:                                               ; preds = %41
  %53 = load i32, ptr %8, align 4
  %54 = add i32 %53, 1
  store i32 %54, ptr %8, align 4
  br label %37, !llvm.loop !146

55:                                               ; preds = %37
  %56 = load i32, ptr %7, align 4
  %57 = add i32 %56, 12
  call void @llvm.lifetime.end.p0(i64 4, ptr %11) #11
  call void @llvm.lifetime.end.p0(i64 4, ptr %10) #11
  call void @llvm.lifetime.end.p0(i64 4, ptr %9) #11
  call void @llvm.lifetime.end.p0(i64 4, ptr %8) #11
  call void @llvm.lifetime.end.p0(i64 4, ptr %7) #11
  ret i32 %57
}

; Function Attrs: null_pointer_is_valid sspstrong uwtable
define internal void @struct_xinput_XIDeviceInfo(ptr noundef %0, ptr noundef %1, ptr noundef %2, i32 noundef %3, i32 noundef %4) #1 {
  %6 = alloca ptr, align 8
  %7 = alloca ptr, align 8
  %8 = alloca ptr, align 8
  %9 = alloca i32, align 4
  %10 = alloca i32, align 4
  %11 = alloca i32, align 4
  %12 = alloca ptr, align 8
  %13 = alloca ptr, align 8
  %14 = alloca i32, align 4
  %15 = alloca i32, align 4
  store ptr %0, ptr %6, align 8
  store ptr %1, ptr %7, align 8
  store ptr %2, ptr %8, align 8
  store i32 %3, ptr %9, align 4
  store i32 %4, ptr %10, align 4
  call void @llvm.lifetime.start.p0(i64 4, ptr %11) #11
  store i32 0, ptr %11, align 4
  br label %16

16:                                               ; preds = %137, %5
  %17 = load i32, ptr %11, align 4
  %18 = load i32, ptr %10, align 4
  %19 = icmp slt i32 %17, %18
  br i1 %19, label %20, label %140

20:                                               ; preds = %16
  call void @llvm.lifetime.start.p0(i64 8, ptr %12) #11
  call void @llvm.lifetime.start.p0(i64 8, ptr %13) #11
  call void @llvm.lifetime.start.p0(i64 4, ptr %14) #11
  call void @llvm.lifetime.start.p0(i64 4, ptr %15) #11
  %21 = load ptr, ptr %8, align 8
  %22 = load i32, ptr @hf_x11_struct_xinput_XIDeviceInfo, align 4
  %23 = load ptr, ptr %6, align 8
  %24 = load ptr, ptr %7, align 8
  %25 = load i32, ptr %24, align 4
  %26 = load ptr, ptr %6, align 8
  %27 = load ptr, ptr %7, align 8
  %28 = load i32, ptr %9, align 4
  %29 = call i32 @struct_size_xinput_XIDeviceInfo(ptr noundef %26, ptr noundef %27, i32 noundef %28)
  %30 = call ptr @proto_tree_add_item(ptr noundef %21, i32 noundef %22, ptr noundef %23, i32 noundef %25, i32 noundef %29, i32 noundef 0)
  store ptr %30, ptr %12, align 8
  %31 = load ptr, ptr %12, align 8
  %32 = load i32, ptr @ett_x11_rectangle, align 4
  %33 = call ptr @proto_item_add_subtree(ptr noundef %31, i32 noundef %32)
  store ptr %33, ptr %13, align 8
  %34 = load ptr, ptr %6, align 8
  %35 = load ptr, ptr %7, align 8
  %36 = load ptr, ptr %13, align 8
  %37 = load i32, ptr @hf_x11_struct_xinput_XIDeviceInfo_deviceid, align 4
  %38 = load i32, ptr %9, align 4
  %39 = call i32 @field16(ptr noundef %34, ptr noundef %35, ptr noundef %36, i32 noundef %37, i32 noundef %38)
  %40 = load ptr, ptr %6, align 8
  %41 = load ptr, ptr %7, align 8
  %42 = load ptr, ptr %13, align 8
  %43 = load i32, ptr @hf_x11_struct_xinput_XIDeviceInfo_type, align 4
  %44 = load i32, ptr %9, align 4
  %45 = call i32 @field16(ptr noundef %40, ptr noundef %41, ptr noundef %42, i32 noundef %43, i32 noundef %44)
  %46 = load ptr, ptr %6, align 8
  %47 = load ptr, ptr %7, align 8
  %48 = load ptr, ptr %13, align 8
  %49 = load i32, ptr @hf_x11_struct_xinput_XIDeviceInfo_attachment, align 4
  %50 = load i32, ptr %9, align 4
  %51 = call i32 @field16(ptr noundef %46, ptr noundef %47, ptr noundef %48, i32 noundef %49, i32 noundef %50)
  %52 = load ptr, ptr %6, align 8
  %53 = load ptr, ptr %7, align 8
  %54 = load i32, ptr %53, align 4
  %55 = load i32, ptr %9, align 4
  %56 = call zeroext i16 @tvb_get_uint16(ptr noundef %52, i32 noundef %54, i32 noundef %55)
  %57 = zext i16 %56 to i32
  store i32 %57, ptr %14, align 4
  %58 = load ptr, ptr %13, align 8
  %59 = load i32, ptr @hf_x11_struct_xinput_XIDeviceInfo_num_classes, align 4
  %60 = load ptr, ptr %6, align 8
  %61 = load ptr, ptr %7, align 8
  %62 = load i32, ptr %61, align 4
  %63 = load i32, ptr %9, align 4
  %64 = call ptr @proto_tree_add_item(ptr noundef %58, i32 noundef %59, ptr noundef %60, i32 noundef %62, i32 noundef 2, i32 noundef %63)
  %65 = load ptr, ptr %7, align 8
  %66 = load i32, ptr %65, align 4
  %67 = add i32 %66, 2
  store i32 %67, ptr %65, align 4
  %68 = load ptr, ptr %6, align 8
  %69 = load ptr, ptr %7, align 8
  %70 = load i32, ptr %69, align 4
  %71 = load i32, ptr %9, align 4
  %72 = call zeroext i16 @tvb_get_uint16(ptr noundef %68, i32 noundef %70, i32 noundef %71)
  %73 = zext i16 %72 to i32
  store i32 %73, ptr %15, align 4
  %74 = load ptr, ptr %13, align 8
  %75 = load i32, ptr @hf_x11_struct_xinput_XIDeviceInfo_name_len, align 4
  %76 = load ptr, ptr %6, align 8
  %77 = load ptr, ptr %7, align 8
  %78 = load i32, ptr %77, align 4
  %79 = load i32, ptr %9, align 4
  %80 = call ptr @proto_tree_add_item(ptr noundef %74, i32 noundef %75, ptr noundef %76, i32 noundef %78, i32 noundef 2, i32 noundef %79)
  %81 = load ptr, ptr %7, align 8
  %82 = load i32, ptr %81, align 4
  %83 = add i32 %82, 2
  store i32 %83, ptr %81, align 4
  %84 = load ptr, ptr %13, align 8
  %85 = load i32, ptr @hf_x11_struct_xinput_XIDeviceInfo_enabled, align 4
  %86 = load ptr, ptr %6, align 8
  %87 = load ptr, ptr %7, align 8
  %88 = load i32, ptr %87, align 4
  %89 = load i32, ptr %9, align 4
  %90 = call ptr @proto_tree_add_item(ptr noundef %84, i32 noundef %85, ptr noundef %86, i32 noundef %88, i32 noundef 1, i32 noundef %89)
  %91 = load ptr, ptr %7, align 8
  %92 = load i32, ptr %91, align 4
  %93 = add i32 %92, 1
  store i32 %93, ptr %91, align 4
  %94 = load ptr, ptr %13, align 8
  %95 = load i32, ptr @hf_x11_unused, align 4
  %96 = load ptr, ptr %6, align 8
  %97 = load ptr, ptr %7, align 8
  %98 = load i32, ptr %97, align 4
  %99 = call ptr @proto_tree_add_item(ptr noundef %94, i32 noundef %95, ptr noundef %96, i32 noundef %98, i32 noundef 1, i32 noundef 0)
  %100 = load ptr, ptr %7, align 8
  %101 = load i32, ptr %100, align 4
  %102 = add i32 %101, 1
  store i32 %102, ptr %100, align 4
  %103 = load ptr, ptr %6, align 8
  %104 = load ptr, ptr %7, align 8
  %105 = load ptr, ptr %13, align 8
  %106 = load i32, ptr @hf_x11_struct_xinput_XIDeviceInfo_name, align 4
  %107 = load i32, ptr %15, align 4
  %108 = load i32, ptr %9, align 4
  call void @listOfByte(ptr noundef %103, ptr noundef %104, ptr noundef %105, i32 noundef %106, i32 noundef %107, i32 noundef %108)
  %109 = load ptr, ptr %7, align 8
  %110 = load i32, ptr %109, align 4
  %111 = srem i32 %110, 4
  %112 = icmp ne i32 %111, 0
  br i1 %112, label %113, label %131

113:                                              ; preds = %20
  %114 = load ptr, ptr %13, align 8
  %115 = load i32, ptr @hf_x11_unused, align 4
  %116 = load ptr, ptr %6, align 8
  %117 = load ptr, ptr %7, align 8
  %118 = load i32, ptr %117, align 4
  %119 = load ptr, ptr %7, align 8
  %120 = load i32, ptr %119, align 4
  %121 = srem i32 %120, 4
  %122 = sub i32 4, %121
  %123 = call ptr @proto_tree_add_item(ptr noundef %114, i32 noundef %115, ptr noundef %116, i32 noundef %118, i32 noundef %122, i32 noundef 0)
  %124 = load ptr, ptr %7, align 8
  %125 = load i32, ptr %124, align 4
  %126 = srem i32 %125, 4
  %127 = sub i32 4, %126
  %128 = load ptr, ptr %7, align 8
  %129 = load i32, ptr %128, align 4
  %130 = add i32 %129, %127
  store i32 %130, ptr %128, align 4
  br label %131

131:                                              ; preds = %113, %20
  %132 = load ptr, ptr %6, align 8
  %133 = load ptr, ptr %7, align 8
  %134 = load ptr, ptr %13, align 8
  %135 = load i32, ptr %9, align 4
  %136 = load i32, ptr %14, align 4
  call void @struct_xinput_DeviceClass(ptr noundef %132, ptr noundef %133, ptr noundef %134, i32 noundef %135, i32 noundef %136)
  call void @llvm.lifetime.end.p0(i64 4, ptr %15) #11
  call void @llvm.lifetime.end.p0(i64 4, ptr %14) #11
  call void @llvm.lifetime.end.p0(i64 8, ptr %13) #11
  call void @llvm.lifetime.end.p0(i64 8, ptr %12) #11
  br label %137

137:                                              ; preds = %131
  %138 = load i32, ptr %11, align 4
  %139 = add i32 %138, 1
  store i32 %139, ptr %11, align 4
  br label %16, !llvm.loop !145

140:                                              ; preds = %16
  call void @llvm.lifetime.end.p0(i64 4, ptr %11) #11
  ret void
}

; Function Attrs: null_pointer_is_valid sspstrong uwtable
define internal void @xinputXIQueryDevice_Reply(ptr noundef %0, ptr noundef %1, ptr noundef %2, ptr noundef %3, i32 noundef %4) #1 {
  %6 = alloca ptr, align 8
  %7 = alloca ptr, align 8
  %8 = alloca ptr, align 8
  %9 = alloca ptr, align 8
  %10 = alloca i32, align 4
  %11 = alloca i32, align 4
  %12 = alloca i32, align 4
  store ptr %0, ptr %6, align 8
  store ptr %1, ptr %7, align 8
  store ptr %2, ptr %8, align 8
  store ptr %3, ptr %9, align 8
  store i32 %4, ptr %10, align 4
  call void @llvm.lifetime.start.p0(i64 4, ptr %11) #11
  call void @llvm.lifetime.start.p0(i64 4, ptr %12) #11
  %13 = load ptr, ptr %7, align 8
  %14 = getelementptr inbounds nuw %struct._packet_info, ptr %13, i32 0, i32 1
  %15 = load ptr, ptr %14, align 8
  call void (ptr, i32, ptr, ...) @col_append_fstr(ptr noundef %15, i32 noundef 25, ptr noundef @.str.15487)
  %16 = load ptr, ptr %6, align 8
  %17 = load ptr, ptr %8, align 8
  %18 = load ptr, ptr %9, align 8
  %19 = load i32, ptr @hf_x11_reply, align 4
  %20 = load i32, ptr %10, align 4
  %21 = call i32 @field8(ptr noundef %16, ptr noundef %17, ptr noundef %18, i32 noundef %19, i32 noundef %20)
  %22 = load ptr, ptr %9, align 8
  %23 = load i32, ptr @hf_x11_unused, align 4
  %24 = load ptr, ptr %6, align 8
  %25 = load ptr, ptr %8, align 8
  %26 = load i32, ptr %25, align 4
  %27 = call ptr @proto_tree_add_item(ptr noundef %22, i32 noundef %23, ptr noundef %24, i32 noundef %26, i32 noundef 1, i32 noundef 0)
  %28 = load ptr, ptr %8, align 8
  %29 = load i32, ptr %28, align 4
  %30 = add i32 %29, 1
  store i32 %30, ptr %28, align 4
  %31 = load ptr, ptr %6, align 8
  %32 = load ptr, ptr %8, align 8
  %33 = load i32, ptr %32, align 4
  %34 = load i32, ptr %10, align 4
  %35 = call zeroext i16 @tvb_get_uint16(ptr noundef %31, i32 noundef %33, i32 noundef %34)
  %36 = zext i16 %35 to i32
  store i32 %36, ptr %11, align 4
  %37 = load ptr, ptr %9, align 8
  %38 = load i32, ptr @hf_x11_reply_sequencenumber, align 4
  %39 = load ptr, ptr %6, align 8
  %40 = load ptr, ptr %8, align 8
  %41 = load i32, ptr %40, align 4
  %42 = load i32, ptr %11, align 4
  %43 = load i32, ptr %11, align 4
  %44 = call ptr (ptr, i32, ptr, i32, i32, i32, ptr, ...) @proto_tree_add_uint_format_value(ptr noundef %37, i32 noundef %38, ptr noundef %39, i32 noundef %41, i32 noundef 2, i32 noundef %42, ptr noundef @.str.15488, i32 noundef %43)
  %45 = load ptr, ptr %8, align 8
  %46 = load i32, ptr %45, align 4
  %47 = add i32 %46, 2
  store i32 %47, ptr %45, align 4
  %48 = load ptr, ptr %9, align 8
  %49 = load i32, ptr @hf_x11_replylength, align 4
  %50 = load ptr, ptr %6, align 8
  %51 = load ptr, ptr %8, align 8
  %52 = load i32, ptr %51, align 4
  %53 = load i32, ptr %10, align 4
  %54 = call ptr @proto_tree_add_item(ptr noundef %48, i32 noundef %49, ptr noundef %50, i32 noundef %52, i32 noundef 4, i32 noundef %53)
  %55 = load ptr, ptr %8, align 8
  %56 = load i32, ptr %55, align 4
  %57 = add i32 %56, 4
  store i32 %57, ptr %55, align 4
  %58 = load ptr, ptr %6, align 8
  %59 = load ptr, ptr %8, align 8
  %60 = load i32, ptr %59, align 4
  %61 = load i32, ptr %10, align 4
  %62 = call zeroext i16 @tvb_get_uint16(ptr noundef %58, i32 noundef %60, i32 noundef %61)
  %63 = zext i16 %62 to i32
  store i32 %63, ptr %12, align 4
  %64 = load ptr, ptr %9, align 8
  %65 = load i32, ptr @hf_x11_xinput_XIQueryDevice_reply_num_infos, align 4
  %66 = load ptr, ptr %6, align 8
  %67 = load ptr, ptr %8, align 8
  %68 = load i32, ptr %67, align 4
  %69 = load i32, ptr %10, align 4
  %70 = call ptr @proto_tree_add_item(ptr noundef %64, i32 noundef %65, ptr noundef %66, i32 noundef %68, i32 noundef 2, i32 noundef %69)
  %71 = load ptr, ptr %8, align 8
  %72 = load i32, ptr %71, align 4
  %73 = add i32 %72, 2
  store i32 %73, ptr %71, align 4
  %74 = load ptr, ptr %9, align 8
  %75 = load i32, ptr @hf_x11_unused, align 4
  %76 = load ptr, ptr %6, align 8
  %77 = load ptr, ptr %8, align 8
  %78 = load i32, ptr %77, align 4
  %79 = call ptr @proto_tree_add_item(ptr noundef %74, i32 noundef %75, ptr noundef %76, i32 noundef %78, i32 noundef 22, i32 noundef 0)
  %80 = load ptr, ptr %8, align 8
  %81 = load i32, ptr %80, align 4
  %82 = add i32 %81, 22
  store i32 %82, ptr %80, align 4
  %83 = load ptr, ptr %6, align 8
  %84 = load ptr, ptr %8, align 8
  %85 = load ptr, ptr %9, align 8
  %86 = load i32, ptr %10, align 4
  %87 = load i32, ptr %12, align 4
  call void @struct_xinput_XIDeviceInfo(ptr noundef %83, ptr noundef %84, ptr noundef %85, i32 noundef %86, i32 noundef %87)
  call void @llvm.lifetime.end.p0(i64 4, ptr %12) #11
  call void @llvm.lifetime.end.p0(i64 4, ptr %11) #11
  ret void
}