; Function Attrs: null_pointer_is_valid sspstrong uwtable
define internal void @xinputXIQueryDevice_Reply(ptr noundef %0, ptr noundef readonly captures(none) %1, ptr noundef captures(none) %2, ptr noundef %3, i32 noundef %4) #1 {
  %6 = getelementptr inbounds nuw i8, ptr %1, i64 8
  %7 = load ptr, ptr %6, align 8
  tail call void (ptr, i32, ptr, ...) @col_append_fstr(ptr noundef %7, i32 noundef 25, ptr noundef nonnull @.str.15487)
  %8 = load i32, ptr @hf_x11_reply, align 4
  %9 = tail call fastcc i32 @field8(ptr noundef %0, ptr noundef %2, ptr noundef %3, i32 noundef %8, i32 noundef %4)
  %10 = load i32, ptr @hf_x11_unused, align 4
  %11 = load i32, ptr %2, align 4
  %12 = tail call ptr @proto_tree_add_item(ptr noundef %3, i32 noundef %10, ptr noundef %0, i32 noundef %11, i32 noundef 1, i32 noundef 0)
  %13 = load i32, ptr %2, align 4
  %14 = add i32 %13, 1
  store i32 %14, ptr %2, align 4
  %15 = tail call zeroext i16 @tvb_get_uint16(ptr noundef %0, i32 noundef %14, i32 noundef %4)
  %16 = zext i16 %15 to i32
  %17 = load i32, ptr @hf_x11_reply_sequencenumber, align 4
  %18 = load i32, ptr %2, align 4
  %19 = tail call ptr (ptr, i32, ptr, i32, i32, i32, ptr, ...) @proto_tree_add_uint_format_value(ptr noundef %3, i32 noundef %17, ptr noundef %0, i32 noundef %18, i32 noundef 2, i32 noundef %16, ptr noundef nonnull @.str.15488, i32 noundef %16)
  %20 = load i32, ptr %2, align 4
  %21 = add i32 %20, 2
  store i32 %21, ptr %2, align 4
  %22 = load i32, ptr @hf_x11_replylength, align 4
  %23 = tail call ptr @proto_tree_add_item(ptr noundef %3, i32 noundef %22, ptr noundef %0, i32 noundef %21, i32 noundef 4, i32 noundef %4)
  %24 = load i32, ptr %2, align 4
  %25 = add i32 %24, 4
  store i32 %25, ptr %2, align 4
  %26 = tail call zeroext i16 @tvb_get_uint16(ptr noundef %0, i32 noundef %25, i32 noundef %4)
  %27 = zext i16 %26 to i32
  %28 = load i32, ptr @hf_x11_xinput_XIQueryDevice_reply_num_infos, align 4
  %29 = load i32, ptr %2, align 4
  %30 = tail call ptr @proto_tree_add_item(ptr noundef %3, i32 noundef %28, ptr noundef %0, i32 noundef %29, i32 noundef 2, i32 noundef %4)
  %31 = load i32, ptr %2, align 4
  %32 = add i32 %31, 2
  store i32 %32, ptr %2, align 4
  %33 = load i32, ptr @hf_x11_unused, align 4
  %34 = tail call ptr @proto_tree_add_item(ptr noundef %3, i32 noundef %33, ptr noundef %0, i32 noundef %32, i32 noundef 22, i32 noundef 0)
  %35 = load i32, ptr %2, align 4
  %36 = add i32 %35, 22
  store i32 %36, ptr %2, align 4
  %.not65.i = icmp eq i16 %26, 0
  br i1 %.not65.i, label %struct_xinput_XIDeviceInfo.exit, label %.lr.ph.i

.lr.ph.i:                                         ; preds = %5, %96
  %.064.i = phi i32 [ %97, %96 ], [ 0, %5 ]
  %37 = load i32, ptr @hf_x11_struct_xinput_XIDeviceInfo, align 4
  %38 = load i32, ptr %2, align 4
  %39 = add i32 %38, 6
  %40 = tail call zeroext i16 @tvb_get_uint16(ptr noundef %0, i32 noundef %39, i32 noundef %4)
  %41 = load i32, ptr %2, align 4
  %42 = add i32 %41, 8
  %43 = tail call zeroext i16 @tvb_get_uint16(ptr noundef %0, i32 noundef %42, i32 noundef %4)
  %44 = zext i16 %43 to i32
  %45 = add nuw nsw i32 %44, 3
  %46 = and i32 %45, 131068
  %47 = zext i16 %40 to i32
  %48 = mul nuw nsw i32 %47, 6
  %49 = add nuw nsw i32 %48, 12
  %50 = add nuw nsw i32 %49, %46
  %51 = tail call ptr @proto_tree_add_item(ptr noundef %3, i32 noundef %37, ptr noundef %0, i32 noundef %38, i32 noundef %50, i32 noundef 0)
  %52 = load i32, ptr @ett_x11_rectangle, align 4
  %53 = tail call ptr @proto_item_add_subtree(ptr noundef %51, i32 noundef %52)
  %54 = load i32, ptr @hf_x11_struct_xinput_XIDeviceInfo_deviceid, align 4
  %55 = tail call fastcc i32 @field16(ptr noundef %0, ptr noundef %2, ptr noundef %53, i32 noundef %54, i32 noundef %4)
  %56 = load i32, ptr @hf_x11_struct_xinput_XIDeviceInfo_type, align 4
  %57 = tail call fastcc i32 @field16(ptr noundef %0, ptr noundef %2, ptr noundef %53, i32 noundef %56, i32 noundef %4)
  %58 = load i32, ptr @hf_x11_struct_xinput_XIDeviceInfo_attachment, align 4
  %59 = tail call fastcc i32 @field16(ptr noundef %0, ptr noundef %2, ptr noundef %53, i32 noundef %58, i32 noundef %4)
  %60 = load i32, ptr %2, align 4
  %61 = tail call zeroext i16 @tvb_get_uint16(ptr noundef %0, i32 noundef %60, i32 noundef %4)
  %62 = zext i16 %61 to i32
  %63 = load i32, ptr @hf_x11_struct_xinput_XIDeviceInfo_num_classes, align 4
  %64 = load i32, ptr %2, align 4
  %65 = tail call ptr @proto_tree_add_item(ptr noundef %53, i32 noundef %63, ptr noundef %0, i32 noundef %64, i32 noundef 2, i32 noundef %4)
  %66 = load i32, ptr %2, align 4
  %67 = add i32 %66, 2
  store i32 %67, ptr %2, align 4
  %68 = tail call zeroext i16 @tvb_get_uint16(ptr noundef %0, i32 noundef %67, i32 noundef %4)
  %69 = load i32, ptr @hf_x11_struct_xinput_XIDeviceInfo_name_len, align 4
  %70 = load i32, ptr %2, align 4
  %71 = tail call ptr @proto_tree_add_item(ptr noundef %53, i32 noundef %69, ptr noundef %0, i32 noundef %70, i32 noundef 2, i32 noundef %4)
  %72 = load i32, ptr %2, align 4
  %73 = add i32 %72, 2
  store i32 %73, ptr %2, align 4
  %74 = load i32, ptr @hf_x11_struct_xinput_XIDeviceInfo_enabled, align 4
  %75 = tail call ptr @proto_tree_add_item(ptr noundef %53, i32 noundef %74, ptr noundef %0, i32 noundef %73, i32 noundef 1, i32 noundef %4)
  %76 = load i32, ptr %2, align 4
  %77 = add i32 %76, 1
  store i32 %77, ptr %2, align 4
  %78 = load i32, ptr @hf_x11_unused, align 4
  %79 = tail call ptr @proto_tree_add_item(ptr noundef %53, i32 noundef %78, ptr noundef %0, i32 noundef %77, i32 noundef 1, i32 noundef 0)
  %80 = load i32, ptr %2, align 4
  %81 = add i32 %80, 1
  store i32 %81, ptr %2, align 4
  %82 = load i32, ptr @hf_x11_struct_xinput_XIDeviceInfo_name, align 4
  %83 = tail call i16 @llvm.umax.i16(i16 %68, i16 1)
  %84 = zext i16 %83 to i32
  %85 = tail call ptr @proto_tree_add_item(ptr noundef %53, i32 noundef %82, ptr noundef %0, i32 noundef %81, i32 noundef %84, i32 noundef %4)
  %86 = load i32, ptr %2, align 4
  %87 = add i32 %86, %84
  store i32 %87, ptr %2, align 4
  %88 = srem i32 %87, 4
  %.not.i = icmp eq i32 %88, 0
  br i1 %.not.i, label %96, label %89

89:                                               ; preds = %.lr.ph.i
  %90 = load i32, ptr @hf_x11_unused, align 4
  %91 = sub nsw i32 4, %88
  %92 = tail call ptr @proto_tree_add_item(ptr noundef %53, i32 noundef %90, ptr noundef %0, i32 noundef %87, i32 noundef %91, i32 noundef 0)
  %93 = load i32, ptr %2, align 4
  %94 = srem i32 %93, 4
  %reass.sub.i = add i32 %93, 4
  %95 = sub i32 %reass.sub.i, %94
  store i32 %95, ptr %2, align 4
  br label %96

96:                                               ; preds = %89, %.lr.ph.i
  tail call fastcc void @struct_xinput_DeviceClass(ptr noundef %0, ptr noundef %2, ptr noundef %53, i32 noundef %4, i32 noundef %62)
  %97 = add nuw nsw i32 %.064.i, 1
  %exitcond.not.i = icmp eq i32 %97, %27
  br i1 %exitcond.not.i, label %struct_xinput_XIDeviceInfo.exit, label %.lr.ph.i, !llvm.loop !117

struct_xinput_XIDeviceInfo.exit:                  ; preds = %96, %5
  ret void
}